target datalayout = "e-m:e-p270:32:32-p271:32:32-p272:64:64-i64:64-i128:128-f80:128-n8:16:32:64-S128"
target triple = "x86_64-pc-linux-gnu"

%struct.mbedtls_record = type { [8 x i8], i8, [2 x i8], ptr, i64, i64, i64, i8, [32 x i8] }

@__const.ssl_extract_add_data_from_record.seq_num_placeholder = private unnamed_addr constant [8 x i8] c"\FF\FF\FF\FF\FF\FF\FF\FF", align 1

; Function Attrs: alwaysinline nounwind uwtable
define internal void @mbedtls_put_unaligned_uint16(ptr noundef %0, i16 noundef zeroext %1) #8 {
  %3 = alloca ptr, align 8
  %4 = alloca i16, align 2
  store ptr %0, ptr %3, align 8, !tbaa !37
  store i16 %1, ptr %4, align 2, !tbaa !141
  %5 = load ptr, ptr %3, align 8, !tbaa !37
  call void @llvm.memcpy.p0.p0.i64(ptr align 1 %5, ptr align 2 %4, i64 2, i1 false)
  ret void
}

; Function Attrs: nounwind uwtable
define internal void @ssl_extract_add_data_from_record(ptr noundef %0, ptr noundef %1, ptr noundef %2, i32 noundef %3, i64 noundef %4) #0 {
  %6 = alloca ptr, align 8
  %7 = alloca ptr, align 8
  %8 = alloca ptr, align 8
  %9 = alloca i32, align 4
  %10 = alloca i64, align 8
  %11 = alloca ptr, align 8
  %12 = alloca i64, align 8
  %13 = alloca [8 x i8], align 1
  store ptr %0, ptr %6, align 8, !tbaa !21
  store ptr %1, ptr %7, align 8, !tbaa !67
  store ptr %2, ptr %8, align 8, !tbaa !37
  store i32 %3, ptr %9, align 4, !tbaa !8
  store i64 %4, ptr %10, align 8, !tbaa !22
  call void @llvm.lifetime.start.p0(i64 8, ptr %11) #11
  %14 = load ptr, ptr %6, align 8, !tbaa !21
  store ptr %14, ptr %11, align 8, !tbaa !21
  call void @llvm.lifetime.start.p0(i64 8, ptr %12) #11
  %15 = load ptr, ptr %8, align 8, !tbaa !37
  %16 = getelementptr inbounds nuw %struct.mbedtls_record, ptr %15, i32 0, i32 6
  %17 = load i64, ptr %16, align 8, !tbaa !46
  store i64 %17, ptr %12, align 8, !tbaa !22
  call void @llvm.lifetime.start.p0(i64 8, ptr %13) #11
  call void @llvm.memcpy.p0.p0.i64(ptr align 1 %13, ptr align 1 @__const.ssl_extract_add_data_from_record.seq_num_placeholder, i64 8, i1 false)
  %18 = load i32, ptr %9, align 4, !tbaa !8
  %19 = icmp eq i32 %18, 772
  br i1 %19, label %20, label %24

20:                                               ; preds = %5
  %21 = load i64, ptr %10, align 8, !tbaa !22
  %22 = load i64, ptr %12, align 8, !tbaa !22
  %23 = add i64 %22, %21
  store i64 %23, ptr %12, align 8, !tbaa !22
  br label %55

24:                                               ; preds = %5
  %25 = load ptr, ptr %8, align 8, !tbaa !37
  %26 = getelementptr inbounds nuw %struct.mbedtls_record, ptr %25, i32 0, i32 7
  %27 = load i8, ptr %26, align 8, !tbaa !41
  %28 = zext i8 %27 to i32
  %29 = icmp ne i32 %28, 0
  br i1 %29, label %30, label %47

30:                                               ; preds = %24
  %31 = load ptr, ptr %11, align 8, !tbaa !21
  %32 = getelementptr inbounds [8 x i8], ptr %13, i64 0, i64 0
  call void @llvm.memcpy.p0.p0.i64(ptr align 1 %31, ptr align 1 %32, i64 8, i1 false)
  %33 = load ptr, ptr %11, align 8, !tbaa !21
  %34 = getelementptr inbounds nuw i8, ptr %33, i64 8
  store ptr %34, ptr %11, align 8, !tbaa !21
  %35 = load ptr, ptr %8, align 8, !tbaa !37
  %36 = getelementptr inbounds nuw %struct.mbedtls_record, ptr %35, i32 0, i32 1
  %37 = load i8, ptr %36, align 8, !tbaa !39
  %38 = load ptr, ptr %11, align 8, !tbaa !21
  store i8 %37, ptr %38, align 1, !tbaa !38
  %39 = load ptr, ptr %11, align 8, !tbaa !21
  %40 = getelementptr inbounds nuw i8, ptr %39, i32 1
  store ptr %40, ptr %11, align 8, !tbaa !21
  %41 = load ptr, ptr %8, align 8, !tbaa !37
  %42 = getelementptr inbounds nuw %struct.mbedtls_record, ptr %41, i32 0, i32 7
  %43 = load i8, ptr %42, align 8, !tbaa !41
  %44 = load ptr, ptr %11, align 8, !tbaa !21
  store i8 %43, ptr %44, align 1, !tbaa !38
  %45 = load ptr, ptr %11, align 8, !tbaa !21
  %46 = getelementptr inbounds nuw i8, ptr %45, i32 1
  store ptr %46, ptr %11, align 8, !tbaa !21
  br label %54

47:                                               ; preds = %24
  %48 = load ptr, ptr %11, align 8, !tbaa !21
  %49 = load ptr, ptr %8, align 8, !tbaa !37
  %50 = getelementptr inbounds nuw %struct.mbedtls_record, ptr %49, i32 0, i32 0
  %51 = getelementptr inbounds [8 x i8], ptr %50, i64 0, i64 0
  call void @llvm.memcpy.p0.p0.i64(ptr align 1 %48, ptr align 8 %51, i64 8, i1 false)
  %52 = load ptr, ptr %11, align 8, !tbaa !21
  %53 = getelementptr inbounds nuw i8, ptr %52, i64 8
  store ptr %53, ptr %11, align 8, !tbaa !21
  br label %54

54:                                               ; preds = %47, %30
  br label %55

55:                                               ; preds = %54, %20
  %56 = load ptr, ptr %8, align 8, !tbaa !37
  %57 = getelementptr inbounds nuw %struct.mbedtls_record, ptr %56, i32 0, i32 1
  %58 = load i8, ptr %57, align 8, !tbaa !39
  %59 = load ptr, ptr %11, align 8, !tbaa !21
  store i8 %58, ptr %59, align 1, !tbaa !38
  %60 = load ptr, ptr %11, align 8, !tbaa !21
  %61 = getelementptr inbounds nuw i8, ptr %60, i32 1
  store ptr %61, ptr %11, align 8, !tbaa !21
  %62 = load ptr, ptr %11, align 8, !tbaa !21
  %63 = load ptr, ptr %8, align 8, !tbaa !37
  %64 = getelementptr inbounds nuw %struct.mbedtls_record, ptr %63, i32 0, i32 2
  %65 = getelementptr inbounds [2 x i8], ptr %64, i64 0, i64 0
  call void @llvm.memcpy.p0.p0.i64(ptr align 1 %62, ptr align 1 %65, i64 2, i1 false)
  %66 = load ptr, ptr %11, align 8, !tbaa !21
  %67 = getelementptr inbounds nuw i8, ptr %66, i64 2
  store ptr %67, ptr %11, align 8, !tbaa !21
  %68 = load ptr, ptr %8, align 8, !tbaa !37
  %69 = getelementptr inbounds nuw %struct.mbedtls_record, ptr %68, i32 0, i32 7
  %70 = load i8, ptr %69, align 8, !tbaa !41
  %71 = zext i8 %70 to i32
  %72 = icmp ne i32 %71, 0
  br i1 %72, label %73, label %102

73:                                               ; preds = %55
  %74 = load ptr, ptr %11, align 8, !tbaa !21
  %75 = load ptr, ptr %8, align 8, !tbaa !37
  %76 = getelementptr inbounds nuw %struct.mbedtls_record, ptr %75, i32 0, i32 0
  %77 = getelementptr inbounds [8 x i8], ptr %76, i64 0, i64 0
  call void @llvm.memcpy.p0.p0.i64(ptr align 1 %74, ptr align 8 %77, i64 8, i1 false)
  %78 = load ptr, ptr %11, align 8, !tbaa !21
  %79 = getelementptr inbounds nuw i8, ptr %78, i64 8
  store ptr %79, ptr %11, align 8, !tbaa !21
  %80 = load ptr, ptr %11, align 8, !tbaa !21
  %81 = load ptr, ptr %8, align 8, !tbaa !37
  %82 = getelementptr inbounds nuw %struct.mbedtls_record, ptr %81, i32 0, i32 8
  %83 = getelementptr inbounds [32 x i8], ptr %82, i64 0, i64 0
  %84 = load ptr, ptr %8, align 8, !tbaa !37
  %85 = getelementptr inbounds nuw %struct.mbedtls_record, ptr %84, i32 0, i32 7
  %86 = load i8, ptr %85, align 8, !tbaa !41
  %87 = zext i8 %86 to i64
  call void @llvm.memcpy.p0.p0.i64(ptr align 1 %80, ptr align 1 %83, i64 %87, i1 false)
  %88 = load ptr, ptr %8, align 8, !tbaa !37
  %89 = getelementptr inbounds nuw %struct.mbedtls_record, ptr %88, i32 0, i32 7
  %90 = load i8, ptr %89, align 8, !tbaa !41
  %91 = zext i8 %90 to i32
  %92 = load ptr, ptr %11, align 8, !tbaa !21
  %93 = sext i32 %91 to i64
  %94 = getelementptr inbounds i8, ptr %92, i64 %93
  store ptr %94, ptr %11, align 8, !tbaa !21
  %95 = load ptr, ptr %11, align 8, !tbaa !21
  %96 = getelementptr inbounds i8, ptr %95, i64 0
  %97 = load i64, ptr %12, align 8, !tbaa !22
  %98 = trunc i64 %97 to i16
  %99 = call i16 @llvm.bswap.i16(i16 %98)
  call void @mbedtls_put_unaligned_uint16(ptr noundef %96, i16 noundef zeroext %99)
  %100 = load ptr, ptr %11, align 8, !tbaa !21
  %101 = getelementptr inbounds i8, ptr %100, i64 2
  store ptr %101, ptr %11, align 8, !tbaa !21
  br label %110

102:                                              ; preds = %55
  %103 = load ptr, ptr %11, align 8, !tbaa !21
  %104 = getelementptr inbounds i8, ptr %103, i64 0
  %105 = load i64, ptr %12, align 8, !tbaa !22
  %106 = trunc i64 %105 to i16
  %107 = call i16 @llvm.bswap.i16(i16 %106)
  call void @mbedtls_put_unaligned_uint16(ptr noundef %104, i16 noundef zeroext %107)
  %108 = load ptr, ptr %11, align 8, !tbaa !21
  %109 = getelementptr inbounds i8, ptr %108, i64 2
  store ptr %109, ptr %11, align 8, !tbaa !21
  br label %110

110:                                              ; preds = %102, %73
  %111 = load ptr, ptr %11, align 8, !tbaa !21
  %112 = load ptr, ptr %6, align 8, !tbaa !21
  %113 = ptrtoint ptr %111 to i64
  %114 = ptrtoint ptr %112 to i64
  %115 = sub i64 %113, %114
  %116 = load ptr, ptr %7, align 8, !tbaa !67
  store i64 %115, ptr %116, align 8, !tbaa !22
  call void @llvm.lifetime.end.p0(i64 8, ptr %13) #11
  call void @llvm.lifetime.end.p0(i64 8, ptr %12) #11
  call void @llvm.lifetime.end.p0(i64 8, ptr %11) #11
  ret void
}