; Function Attrs: mustprogress nofree norecurse nosync nounwind willreturn memory(argmem: readwrite) uwtable
define internal fastcc void @ssl_extract_add_data_from_record(ptr noundef nonnull %0, ptr noundef nonnull writeonly captures(none) initializes((0, 8)) %1, ptr noundef nonnull readonly captures(none) %2, i32 noundef %3, i64 noundef %4) unnamed_addr #4 {
  %6 = getelementptr inbounds nuw i8, ptr %2, i64 40
  %7 = load i64, ptr %6, align 8, !tbaa !40
  %8 = icmp eq i32 %3, 772
  br i1 %8, label %9, label %11

9:                                                ; preds = %5
  %10 = add i64 %7, %4
  br label %24

11:                                               ; preds = %5
  %12 = getelementptr inbounds nuw i8, ptr %2, i64 48
  %13 = load i8, ptr %12, align 8, !tbaa !35
  %.not = icmp eq i8 %13, 0
  br i1 %.not, label %21, label %14

14:                                               ; preds = %11
  store i64 -1, ptr %0, align 1
  %15 = getelementptr inbounds nuw i8, ptr %0, i64 8
  %16 = getelementptr inbounds nuw i8, ptr %2, i64 8
  %17 = load i8, ptr %16, align 8, !tbaa !33
  store i8 %17, ptr %15, align 1, !tbaa !32
  %18 = getelementptr inbounds nuw i8, ptr %0, i64 9
  %19 = load i8, ptr %12, align 8, !tbaa !35
  store i8 %19, ptr %18, align 1, !tbaa !32
  %20 = getelementptr inbounds nuw i8, ptr %0, i64 10
  br label %24

21:                                               ; preds = %11
  %22 = load i64, ptr %2, align 8
  store i64 %22, ptr %0, align 1
  %23 = getelementptr inbounds nuw i8, ptr %0, i64 8
  br label %24

24:                                               ; preds = %14, %21, %9
  %.041 = phi i64 [ %10, %9 ], [ %7, %14 ], [ %7, %21 ]
  %.0 = phi ptr [ %0, %9 ], [ %20, %14 ], [ %23, %21 ]
  %25 = getelementptr inbounds nuw i8, ptr %2, i64 8
  %26 = load i8, ptr %25, align 8, !tbaa !33
  store i8 %26, ptr %.0, align 1, !tbaa !32
  %27 = getelementptr inbounds nuw i8, ptr %.0, i64 1
  %28 = getelementptr inbounds nuw i8, ptr %2, i64 9
  %29 = load i16, ptr %28, align 1
  store i16 %29, ptr %27, align 1
  %30 = getelementptr inbounds nuw i8, ptr %.0, i64 3
  %31 = getelementptr inbounds nuw i8, ptr %2, i64 48
  %32 = load i8, ptr %31, align 8, !tbaa !35
  %.not42 = icmp eq i8 %32, 0
  br i1 %.not42, label %45, label %33

33:                                               ; preds = %24
  %34 = load i64, ptr %2, align 8
  store i64 %34, ptr %30, align 1
  %35 = getelementptr inbounds nuw i8, ptr %.0, i64 11
  %36 = getelementptr inbounds nuw i8, ptr %2, i64 49
  %37 = load i8, ptr %31, align 8, !tbaa !35
  %38 = zext i8 %37 to i64
  tail call void @llvm.memcpy.p0.p0.i64(ptr nonnull align 1 %35, ptr nonnull align 1 %36, i64 %38, i1 false)
  %39 = load i8, ptr %31, align 8, !tbaa !35
  %40 = zext i8 %39 to i64
  %41 = getelementptr inbounds nuw i8, ptr %35, i64 %40
  %42 = trunc i64 %.041 to i16
  %43 = tail call i16 @llvm.bswap.i16(i16 %42)
  store i16 %43, ptr %41, align 1
  %44 = getelementptr inbounds nuw i8, ptr %41, i64 2
  br label %49

45:                                               ; preds = %24
  %46 = trunc i64 %.041 to i16
  %47 = tail call i16 @llvm.bswap.i16(i16 %46)
  store i16 %47, ptr %30, align 1
  %48 = getelementptr inbounds nuw i8, ptr %.0, i64 5
  br label %49

49:                                               ; preds = %45, %33
  %.1 = phi ptr [ %44, %33 ], [ %48, %45 ]
  %50 = ptrtoint ptr %.1 to i64
  %51 = ptrtoint ptr %0 to i64
  %52 = sub i64 %50, %51
  store i64 %52, ptr %1, align 8, !tbaa !56
  ret void
}